	.file	"bufferoverflow.c"
	.text
	.globl	gets
	.type	gets, @function
gets:
.LFB61:
	.cfi_startproc
	pushq	%rbp
	.cfi_def_cfa_offset 16
	.cfi_offset 6, -16
	pushq	%rbx
	.cfi_def_cfa_offset 24
	.cfi_offset 3, -24
	subq	$8, %rsp
	.cfi_def_cfa_offset 32
	movq	%rdi, %rbp
	movq	%rdi, %rbx
	jmp	.L2
.L4:
	movb	%al, (%rbx)
	leaq	1(%rbx), %rbx
.L2:
	movq	stdin(%rip), %rdi
	call	_IO_getc
	cmpl	$10, %eax
	je	.L3
	cmpl	$-1, %eax
	jne	.L4
.L3:
	cmpl	$-1, %eax
	sete	%dl
	cmpq	%rbp, %rbx
	sete	%al
	testb	%al, %dl
	jne	.L6
	movb	$0, (%rbx)
	movq	%rbp, %rax
	jmp	.L5
.L6:
	movl	$0, %eax
.L5:
	addq	$8, %rsp
	.cfi_def_cfa_offset 24
	popq	%rbx
	.cfi_def_cfa_offset 16
	popq	%rbp
	.cfi_def_cfa_offset 8
	ret
	.cfi_endproc
.LFE61:
	.size	gets, .-gets
	.globl	get_line
	.type	get_line, @function
get_line:
.LFB60:
	.cfi_startproc
	pushq	%rbp
	.cfi_def_cfa_offset 16
	.cfi_offset 6, -16
	pushq	%rbx
	.cfi_def_cfa_offset 24
	.cfi_offset 3, -24
	subq	$24, %rsp
	.cfi_def_cfa_offset 48
	movq	%fs:40, %rax
	movq	%rax, 8(%rsp)
	xorl	%eax, %eax
	movq	%rsp, %rdi
	call	gets
	movl	$0, %eax
	movq	$-1, %rcx
	movq	%rsp, %rdi
	repnz scasb
	notq	%rcx
	leaq	-1(%rcx), %rdi
	call	malloc
	movq	%rax, %rbp
	movq	%rsp, %rsi
	movq	%rax, %rdi
	call	strcpy
	movq	8(%rsp), %rdx
	xorq	%fs:40, %rdx
	je	.L9
	call	__stack_chk_fail
.L9:
	movq	%rbp, %rax
	addq	$24, %rsp
	.cfi_def_cfa_offset 24
	popq	%rbx
	.cfi_def_cfa_offset 16
	popq	%rbp
	.cfi_def_cfa_offset 8
	ret
	.cfi_endproc
.LFE60:
	.size	get_line, .-get_line
	.ident	"GCC: (Ubuntu 5.4.0-6ubuntu1~16.04.4) 5.4.0 20160609"
	.section	.note.GNU-stack,"",@progbits
